Certificate:
    Data:
        Version: 3 (0x2)
        Serial Number:
            cd:0a:1b:d0:59:57:8a:93:32:03:49:8c:85:f8:b5:5d
        Signature Algorithm: sha256WithRSAEncryption
        Issuer: CN=ca
        Validity
            Not Before: May 14 12:25:42 2023 GMT
            Not After : Aug 16 12:25:42 2025 GMT
        Subject: C=AU, ST=Some-State, L=bogota, O=eps, OU=eps ca, CN=certicateAutorityCA/emailAddress=admin@ca.com
        Subject Public Key Info:
            Public Key Algorithm: rsaEncryption
                Public-Key: (2048 bit)
                Modulus:
                    00:cd:a7:4a:43:93:1c:fa:a7:56:a6:40:aa:d8:b1:
                    03:c7:9b:c1:92:ce:e5:71:b5:7c:93:aa:03:05:83:
                    59:df:5e:d0:e0:cb:41:49:fa:af:42:0f:9d:e2:5d:
                    f3:22:b0:8a:e1:0b:fa:eb:27:a4:25:71:68:10:47:
                    29:3f:6f:49:a7:6b:ee:0a:88:a9:f8:ce:5a:81:9a:
                    ae:61:e2:5d:52:9d:31:9a:cd:9e:c2:2a:bc:62:7d:
                    e2:c7:42:2b:0b:fc:5d:bb:46:ef:98:87:b5:19:40:
                    07:a8:da:da:9c:24:e4:4b:c6:c7:b0:38:9c:3b:1c:
                    b7:3e:a3:ba:56:10:20:eb:df:28:3d:de:65:98:af:
                    b4:af:99:b7:53:ef:f8:fe:9e:d5:94:06:b0:f4:3a:
                    47:98:04:bb:01:e3:e2:a9:74:af:26:fa:d1:4b:20:
                    40:f2:6e:ae:c1:84:15:70:05:83:a9:6b:8b:6d:34:
                    83:82:57:da:20:3c:d3:08:57:80:4b:b1:b3:9b:28:
                    72:09:e0:48:6b:4f:6c:02:6c:64:5f:dd:16:e9:82:
                    66:42:af:ae:49:57:da:44:dd:1f:9a:90:b9:92:8e:
                    40:76:82:8b:6c:2a:96:b9:05:df:56:10:77:78:fa:
                    0a:fc:1d:02:d6:51:ea:9f:81:86:16:72:2d:a3:27:
                    fa:85
                Exponent: 65537 (0x10001)
        X509v3 extensions:
            X509v3 Basic Constraints: 
                CA:FALSE
            X509v3 Subject Key Identifier: 
                CB:23:03:0E:16:91:F9:4C:79:D3:1F:95:28:52:83:C1:21:19:58:33
            X509v3 Authority Key Identifier: 
                keyid:88:22:00:F0:74:AD:4D:A2:89:52:C9:75:3B:E9:5A:10:3F:C6:92:D3
                DirName:/CN=ca
                serial:3A:AB:D9:0F:04:B9:1E:5F:1C:82:E5:9D:1F:2B:AF:8D:E1:FA:DE:15
            X509v3 Extended Key Usage: 
                TLS Web Server Authentication
            X509v3 Key Usage: 
                Digital Signature, Key Encipherment
            X509v3 Subject Alternative Name: 
                DNS:certicateAutorityCA
    Signature Algorithm: sha256WithRSAEncryption
    Signature Value:
        7c:0f:68:6c:c5:6a:41:bf:aa:d7:d1:f9:93:ea:b4:0e:43:08:
        77:80:6b:20:c3:b1:f1:06:a0:2b:f3:22:d7:a6:d1:98:ef:4c:
        ed:14:c5:e5:c5:32:04:f8:7c:b3:49:9b:53:b8:7d:8d:de:4a:
        c6:d4:37:8f:4d:ed:4c:3e:a9:2d:26:ba:66:3c:7e:c3:36:51:
        62:99:39:d1:bd:e3:00:d5:21:52:78:44:9f:31:75:9f:94:f6:
        08:71:00:79:81:62:90:fe:dd:bd:33:12:79:b1:53:2d:44:88:
        2b:14:01:2f:dc:10:6d:91:66:53:21:93:b2:ef:ed:33:7c:cb:
        a5:c1:30:df:9b:8a:6d:e8:e0:65:6a:d5:3b:a6:20:9e:2e:42:
        5c:e2:fb:1c:d1:c1:c4:c6:1c:87:2a:02:ed:ae:3d:3d:47:15:
        55:db:e0:34:7f:70:69:47:a6:04:e1:5d:d4:47:65:53:7b:a0:
        96:18:66:39:cd:9a:f2:ed:99:98:b8:cc:6a:35:e4:31:1c:7f:
        48:db:bd:3b:ae:23:af:09:49:f9:cd:a4:74:83:f9:13:54:6a:
        52:8c:5e:46:f4:7a:25:34:7b:9b:a0:7f:a9:c7:bd:11:d1:3b:
        53:0b:9c:c3:f8:2b:f2:42:9d:89:ba:fd:ba:6e:45:5a:23:19:
        1b:17:c7:37
-----BEGIN CERTIFICATE-----
MIID4DCCAsigAwIBAgIRAM0KG9BZV4qTMgNJjIX4tV0wDQYJKoZIhvcNAQELBQAw
DTELMAkGA1UEAwwCY2EwHhcNMjMwNTE0MTIyNTQyWhcNMjUwODE2MTIyNTQyWjCB
jTELMAkGA1UEBhMCQVUxEzARBgNVBAgMClNvbWUtU3RhdGUxDzANBgNVBAcMBmJv
Z290YTEMMAoGA1UECgwDZXBzMQ8wDQYDVQQLDAZlcHMgY2ExHDAaBgNVBAMME2Nl
cnRpY2F0ZUF1dG9yaXR5Q0ExGzAZBgkqhkiG9w0BCQEWDGFkbWluQGNhLmNvbTCC
ASIwDQYJKoZIhvcNAQEBBQADggEPADCCAQoCggEBAM2nSkOTHPqnVqZAqtixA8eb
wZLO5XG1fJOqAwWDWd9e0ODLQUn6r0IPneJd8yKwiuEL+usnpCVxaBBHKT9vSadr
7gqIqfjOWoGarmHiXVKdMZrNnsIqvGJ94sdCKwv8XbtG75iHtRlAB6ja2pwk5EvG
x7A4nDsctz6julYQIOvfKD3eZZivtK+Zt1Pv+P6e1ZQGsPQ6R5gEuwHj4ql0ryb6
0UsgQPJursGEFXAFg6lri200g4JX2iA80whXgEuxs5socgngSGtPbAJsZF/dFumC
ZkKvrklX2kTdH5qQuZKOQHaCi2wqlrkF31YQd3j6CvwdAtZR6p+BhhZyLaMn+oUC
AwEAAaOBuTCBtjAJBgNVHRMEAjAAMB0GA1UdDgQWBBTLIwMOFpH5THnTH5UoUoPB
IRlYMzBIBgNVHSMEQTA/gBSIIgDwdK1NoolSyXU76VoQP8aS06ERpA8wDTELMAkG
A1UEAwwCY2GCFDqr2Q8EuR5fHILlnR8rr43h+t4VMBMGA1UdJQQMMAoGCCsGAQUF
BwMBMAsGA1UdDwQEAwIFoDAeBgNVHREEFzAVghNjZXJ0aWNhdGVBdXRvcml0eUNB
MA0GCSqGSIb3DQEBCwUAA4IBAQB8D2hsxWpBv6rX0fmT6rQOQwh3gGsgw7HxBqAr
8yLXptGY70ztFMXlxTIE+HyzSZtTuH2N3krG1DePTe1MPqktJrpmPH7DNlFimTnR
veMA1SFSeESfMXWflPYIcQB5gWKQ/t29MxJ5sVMtRIgrFAEv3BBtkWZTIZOy7+0z
fMulwTDfm4pt6OBlatU7piCeLkJc4vsc0cHExhyHKgLtrj09RxVV2+A0f3BpR6YE
4V3UR2VTe6CWGGY5zZry7ZmYuMxqNeQxHH9I2707riOvCUn5zaR0g/kTVGpSjF5G
9HolNHuboH+px70R0TtTC5zD+CvyQp2Juv26bkVaIxkbF8c3
-----END CERTIFICATE-----
